; Function Attrs: nounwind uwtable
define noundef ptr @Aig_ManScanMapping(ptr noundef %0, i32 noundef %1) local_unnamed_addr #0 {
  %3 = load ptr, ptr %0, align 8, !tbaa !47
  %4 = getelementptr inbounds nuw i8, ptr %3, i64 32
  %5 = load ptr, ptr %4, align 8, !tbaa !48
  %6 = getelementptr i8, ptr %5, i64 4
  %.val2226 = load i32, ptr %6, align 4, !tbaa !33
  %7 = icmp sgt i32 %.val2226, 0
  br i1 %7, label %.lr.ph, label %.critedge

.lr.ph:                                           ; preds = %2, %18
  %8 = phi ptr [ %19, %18 ], [ %3, %2 ]
  %indvars.iv = phi i64 [ %indvars.iv.next, %18 ], [ 0, %2 ]
  %9 = phi ptr [ %21, %18 ], [ %5, %2 ]
  %10 = getelementptr i8, ptr %9, i64 8
  %.val24 = load ptr, ptr %10, align 8, !tbaa !36
  %11 = getelementptr inbounds nuw ptr, ptr %.val24, i64 %indvars.iv
  %12 = load ptr, ptr %11, align 8, !tbaa !37
  %13 = icmp eq ptr %12, null
  br i1 %13, label %18, label %14

14:                                               ; preds = %.lr.ph
  %15 = getelementptr inbounds nuw i8, ptr %12, i64 24
  %16 = load i64, ptr %15, align 8
  %17 = and i64 %16, -4294967233
  store i64 %17, ptr %15, align 8
  %.pre = load ptr, ptr %0, align 8, !tbaa !47
  br label %18

18:                                               ; preds = %14, %.lr.ph
  %19 = phi ptr [ %.pre, %14 ], [ %8, %.lr.ph ]
  %indvars.iv.next = add nuw nsw i64 %indvars.iv, 1
  %20 = getelementptr inbounds nuw i8, ptr %19, i64 32
  %21 = load ptr, ptr %20, align 8, !tbaa !48
  %22 = getelementptr i8, ptr %21, i64 4
  %.val22 = load i32, ptr %22, align 4, !tbaa !33
  %23 = sext i32 %.val22 to i64
  %24 = icmp slt i64 %indvars.iv.next, %23
  br i1 %24, label %.lr.ph, label %.critedge, !llvm.loop !58

.critedge:                                        ; preds = %18, %2
  %25 = phi ptr [ %3, %2 ], [ %19, %18 ]
  %.not = icmp eq i32 %1, 0
  br i1 %.not, label %31, label %26

26:                                               ; preds = %.critedge
  %27 = tail call noalias dereferenceable_or_null(16) ptr @malloc(i64 noundef 16) #25
  %28 = getelementptr inbounds nuw i8, ptr %27, i64 4
  store i32 0, ptr %28, align 4, !tbaa !33
  store i32 1000, ptr %27, align 8, !tbaa !35
  %29 = tail call noalias dereferenceable_or_null(8000) ptr @malloc(i64 noundef 8000) #25
  %30 = getelementptr inbounds nuw i8, ptr %27, i64 8
  store ptr %29, ptr %30, align 8, !tbaa !36
  br label %31

31:                                               ; preds = %26, %.critedge
  %.020 = phi ptr [ %27, %26 ], [ null, %.critedge ]
  %32 = getelementptr inbounds nuw i8, ptr %0, i64 24
  store i32 0, ptr %32, align 8, !tbaa !59
  %33 = getelementptr inbounds nuw i8, ptr %25, i64 24
  %34 = load ptr, ptr %33, align 8, !tbaa !60
  %35 = getelementptr i8, ptr %34, i64 4
  %.val28 = load i32, ptr %35, align 4, !tbaa !33
  %36 = icmp sgt i32 %.val28, 0
  br i1 %36, label %.lr.ph30, label %.critedge2

.lr.ph30:                                         ; preds = %31, %.lr.ph30
  %indvars.iv32 = phi i64 [ %indvars.iv.next33, %.lr.ph30 ], [ 0, %31 ]
  %37 = phi ptr [ %50, %.lr.ph30 ], [ %34, %31 ]
  %38 = getelementptr i8, ptr %37, i64 8
  %.val23 = load ptr, ptr %38, align 8, !tbaa !36
  %39 = getelementptr inbounds nuw ptr, ptr %.val23, i64 %indvars.iv32
  %40 = load ptr, ptr %39, align 8, !tbaa !37
  %41 = getelementptr i8, ptr %40, i64 8
  %.val25 = load ptr, ptr %41, align 8, !tbaa !61
  %42 = ptrtoint ptr %.val25 to i64
  %43 = and i64 %42, -2
  %44 = inttoptr i64 %43 to ptr
  %45 = tail call i32 @Aig_ManScanMapping_rec(ptr noundef nonnull %0, ptr noundef %44, ptr noundef %.020)
  %46 = load i32, ptr %32, align 8, !tbaa !59
  %47 = add nsw i32 %46, %45
  store i32 %47, ptr %32, align 8, !tbaa !59
  %indvars.iv.next33 = add nuw nsw i64 %indvars.iv32, 1
  %48 = load ptr, ptr %0, align 8, !tbaa !47
  %49 = getelementptr inbounds nuw i8, ptr %48, i64 24
  %50 = load ptr, ptr %49, align 8, !tbaa !60
  %51 = getelementptr i8, ptr %50, i64 4
  %.val = load i32, ptr %51, align 4, !tbaa !33
  %52 = sext i32 %.val to i64
  %53 = icmp slt i64 %indvars.iv.next33, %52
  br i1 %53, label %.lr.ph30, label %.critedge2, !llvm.loop !62

.critedge2:                                       ; preds = %.lr.ph30, %31
  ret ptr %.020
}